; Function Attrs: nounwind uwtable
define noundef ptr @tng_compress_vel(ptr noundef readonly captures(none) %0, i32 noundef %1, i32 noundef %2, double noundef %3, i32 noundef %4, ptr noundef captures(none) %5, ptr noundef writeonly captures(none) %6) local_unnamed_addr #0 {
  %8 = alloca i64, align 8
  %9 = alloca i64, align 8
  %10 = mul i32 %1, 3
  %11 = mul i32 %10, %2
  %12 = sext i32 %11 to i64
  %13 = shl nsw i64 %12, 2
  %14 = tail call noalias ptr @malloc(i64 noundef %13) #12
  call void @llvm.lifetime.start.p0(i64 8, ptr nonnull %8) #13
  call void @llvm.lifetime.start.p0(i64 8, ptr nonnull %9) #13
  call void @Ptngc_d_to_i32x2(double noundef %3, ptr noundef nonnull %8, ptr noundef nonnull %9) #13
  %15 = load i64, ptr %8, align 8, !tbaa !18
  %16 = load i64, ptr %9, align 8, !tbaa !18
  %17 = call double @Ptngc_i32x2_to_d(i64 noundef %15, i64 noundef %16) #13
  %18 = icmp sgt i32 %2, 0
  %19 = icmp sgt i32 %1, 0
  %or.cond.i = and i1 %19, %18
  br i1 %or.cond.i, label %.preheader27.us.preheader.i, label %.loopexit

.preheader27.us.preheader.i:                      ; preds = %7
  %20 = zext nneg i32 %1 to i64
  %wide.trip.count42.i = zext nneg i32 %2 to i64
  br label %.preheader27.us.i

.preheader27.us.i:                                ; preds = %._crit_edge.us.i, %.preheader27.us.preheader.i
  %indvars.iv39.i = phi i64 [ 0, %.preheader27.us.preheader.i ], [ %indvars.iv.next40.i, %._crit_edge.us.i ]
  %21 = mul nuw nsw i64 %indvars.iv39.i, %20
  br label %.preheader.us.i

22:                                               ; preds = %23
  %indvars.iv.next36.i = add nuw nsw i64 %indvars.iv35.i, 1
  %exitcond38.not.i = icmp eq i64 %indvars.iv.next36.i, %20
  br i1 %exitcond38.not.i, label %._crit_edge.us.i, label %.preheader.us.i, !llvm.loop !20

23:                                               ; preds = %.preheader.us.i, %23
  %indvars.iv.i = phi i64 [ 0, %.preheader.us.i ], [ %indvars.iv.next.i, %23 ]
  %24 = add nsw i64 %indvars.iv.i, %33
  %25 = getelementptr inbounds double, ptr %0, i64 %24
  %26 = load double, ptr %25, align 8, !tbaa !21
  %27 = fdiv double %26, %17
  %28 = fadd double %27, 5.000000e-01
  %29 = call double @llvm.floor.f64(double %28)
  %30 = fptosi double %29 to i32
  %31 = getelementptr inbounds i32, ptr %14, i64 %24
  store i32 %30, ptr %31, align 4, !tbaa !3
  %indvars.iv.next.i = add nuw nsw i64 %indvars.iv.i, 1
  %exitcond.not.i = icmp eq i64 %indvars.iv.next.i, 3
  br i1 %exitcond.not.i, label %22, label %23, !llvm.loop !23

.preheader.us.i:                                  ; preds = %22, %.preheader27.us.i
  %indvars.iv35.i = phi i64 [ 0, %.preheader27.us.i ], [ %indvars.iv.next36.i, %22 ]
  %32 = add nuw nsw i64 %indvars.iv35.i, %21
  %sext.i = mul i64 %32, 12884901888
  %33 = ashr exact i64 %sext.i, 32
  br label %23

._crit_edge.us.i:                                 ; preds = %22
  %indvars.iv.next40.i = add nuw nsw i64 %indvars.iv39.i, 1
  %exitcond43.not.i = icmp eq i64 %indvars.iv.next40.i, %wide.trip.count42.i
  br i1 %exitcond43.not.i, label %.preheader18.us.i.i, label %.preheader27.us.i, !llvm.loop !24

.preheader18.us.i.i:                              ; preds = %._crit_edge.us.i, %._crit_edge.us.i.i
  %indvars.iv30.i.i = phi i64 [ %indvars.iv.next31.i.i, %._crit_edge.us.i.i ], [ 0, %._crit_edge.us.i ]
  %34 = mul nuw nsw i64 %indvars.iv30.i.i, %20
  br label %.preheader.us.i.i

35:                                               ; preds = %37
  %indvars.iv.next.i.i = add nuw nsw i64 %indvars.iv.i.i, 1
  %exitcond.not.i.i = icmp eq i64 %indvars.iv.next.i.i, 3
  br i1 %exitcond.not.i.i, label %36, label %37, !llvm.loop !25

36:                                               ; preds = %35
  %indvars.iv.next27.i.i = add nuw nsw i64 %indvars.iv26.i.i, 1
  %exitcond29.not.i.i = icmp eq i64 %indvars.iv.next27.i.i, %20
  br i1 %exitcond29.not.i.i, label %._crit_edge.us.i.i, label %.preheader.us.i.i, !llvm.loop !26

37:                                               ; preds = %.preheader.us.i.i, %35
  %indvars.iv.i.i = phi i64 [ 0, %.preheader.us.i.i ], [ %indvars.iv.next.i.i, %35 ]
  %gep.i.i = getelementptr double, ptr %invariant.gep.i.i, i64 %indvars.iv.i.i
  %38 = load double, ptr %gep.i.i, align 8, !tbaa !21
  %39 = fdiv double %38, %17
  %40 = fadd double %39, 5.000000e-01
  %41 = call double @llvm.fabs.f64(double %40)
  %42 = fcmp ult double %41, 0x41DFFFFFFFC00000
  br i1 %42, label %35, label %quantize.exit

.preheader.us.i.i:                                ; preds = %36, %.preheader18.us.i.i
  %indvars.iv26.i.i = phi i64 [ 0, %.preheader18.us.i.i ], [ %indvars.iv.next27.i.i, %36 ]
  %43 = add nuw nsw i64 %indvars.iv26.i.i, %34
  %sext.i.i = mul i64 %43, 12884901888
  %44 = ashr exact i64 %sext.i.i, 29
  %invariant.gep.i.i = getelementptr i8, ptr %0, i64 %44
  br label %37

._crit_edge.us.i.i:                               ; preds = %36
  %indvars.iv.next31.i.i = add nuw nsw i64 %indvars.iv30.i.i, 1
  %exitcond34.not.i.i = icmp eq i64 %indvars.iv.next31.i.i, %wide.trip.count42.i
  br i1 %exitcond34.not.i.i, label %.loopexit, label %.preheader18.us.i.i, !llvm.loop !27

.loopexit:                                        ; preds = %._crit_edge.us.i.i, %7
  %45 = load i64, ptr %8, align 8, !tbaa !18
  %46 = load i64, ptr %9, align 8, !tbaa !18
  %47 = call ptr @tng_compress_vel_int(ptr noundef %14, i32 noundef %1, i32 noundef %2, i64 noundef %45, i64 noundef %46, i32 noundef %4, ptr noundef %5, ptr noundef %6)
  br label %quantize.exit

quantize.exit:                                    ; preds = %37, %.loopexit
  %.0 = phi ptr [ %47, %.loopexit ], [ null, %37 ]
  call void @free(ptr noundef %14) #13
  call void @llvm.lifetime.end.p0(i64 8, ptr nonnull %9) #13
  call void @llvm.lifetime.end.p0(i64 8, ptr nonnull %8) #13
  ret ptr %.0
}